target datalayout = "e-m:e-p270:32:32-p271:32:32-p272:64:64-i64:64-i128:128-f80:128-n8:16:32:64-S128"
target triple = "x86_64-pc-linux-gnu"

%struct.rxinfo = type { i8, i8, i16, i32, i32, i32, i32 }

@hf_afs_vol_errcode = internal global i32 0, align 4
@hf_afs_vol_count = internal global i32 0, align 4
@hf_afs_vol_name = internal global i32 0, align 4

; Function Attrs: null_pointer_is_valid sspstrong uwtable
define internal void @dissect_vol_reply(ptr noundef %0, ptr noundef %1, i32 noundef %2) #0 {
  %4 = alloca ptr, align 8
  %5 = alloca ptr, align 8
  %6 = alloca i32, align 4
  store ptr %0, ptr %4, align 8
  store ptr %1, ptr %5, align 8
  store i32 %2, ptr %6, align 4
  %7 = load ptr, ptr %5, align 8
  %8 = getelementptr inbounds nuw %struct.rxinfo, ptr %7, i32 0, i32 0
  %9 = load i8, ptr %8, align 4
  %10 = zext i8 %9 to i32
  %11 = icmp eq i32 %10, 1
  br i1 %11, label %12, label %21

12:                                               ; preds = %3
  %13 = load i32, ptr %6, align 4
  switch i32 %13, label %20 [
    i32 121, label %14
  ]

14:                                               ; preds = %12
  %15 = load ptr, ptr %4, align 8
  %16 = load i32, ptr @hf_afs_vol_count, align 4
  %17 = call ptr @ptvcursor_add(ptr noundef %15, i32 noundef %16, i32 noundef 4, i32 noundef 0)
  %18 = load ptr, ptr %4, align 8
  %19 = load i32, ptr @hf_afs_vol_name, align 4
  call void @OUT_RXStringV(ptr noundef %18, i32 noundef %19, i32 noundef 32)
  br label %20

20:                                               ; preds = %12, %14
  br label %32

21:                                               ; preds = %3
  %22 = load ptr, ptr %5, align 8
  %23 = getelementptr inbounds nuw %struct.rxinfo, ptr %22, i32 0, i32 0
  %24 = load i8, ptr %23, align 4
  %25 = zext i8 %24 to i32
  %26 = icmp eq i32 %25, 4
  br i1 %26, label %27, label %31

27:                                               ; preds = %21
  %28 = load ptr, ptr %4, align 8
  %29 = load i32, ptr @hf_afs_vol_errcode, align 4
  %30 = call ptr @ptvcursor_add(ptr noundef %28, i32 noundef %29, i32 noundef 4, i32 noundef 0)
  br label %31

31:                                               ; preds = %27, %21
  br label %32

32:                                               ; preds = %31, %20
  ret void
}