; Function Attrs: null_pointer_is_valid sspstrong uwtable
define internal void @dissect_vol_reply(ptr noundef %0, ptr noundef readonly captures(none) %1, i32 noundef %2) #0 {
  %4 = load i8, ptr %1, align 4
  switch i8 %4, label %13 [
    i8 1, label %5
    i8 4, label %10
  ]

5:                                                ; preds = %3
  %cond = icmp eq i32 %2, 121
  br i1 %cond, label %6, label %13

6:                                                ; preds = %5
  %7 = load i32, ptr @hf_afs_vol_count, align 4
  %8 = tail call ptr @ptvcursor_add(ptr noundef %0, i32 noundef %7, i32 noundef 4, i32 noundef 0)
  %9 = load i32, ptr @hf_afs_vol_name, align 4
  tail call fastcc void @OUT_RXStringV(ptr noundef %0, i32 noundef %9, i32 noundef 32)
  br label %13

10:                                               ; preds = %3
  %11 = load i32, ptr @hf_afs_vol_errcode, align 4
  %12 = tail call ptr @ptvcursor_add(ptr noundef %0, i32 noundef %11, i32 noundef 4, i32 noundef 0)
  br label %13

13:                                               ; preds = %3, %10, %6, %5
  ret void
}